target datalayout = "e-m:e-p270:32:32-p271:32:32-p272:64:64-i64:64-i128:128-f80:128-n8:16:32:64-S128"
target triple = "x86_64-pc-linux-gnu"

@hf_gryphon_ldf_num_encodings = internal global i32 0, align 4

; Function Attrs: null_pointer_is_valid sspstrong uwtable
define internal i32 @resp_ldf_get_encoding_info(ptr noundef %0, ptr noundef %1, i32 noundef %2, ptr noundef %3) #0 {
  %5 = alloca ptr, align 8
  %6 = alloca ptr, align 8
  %7 = alloca i32, align 4
  %8 = alloca ptr, align 8
  %9 = alloca i16, align 2
  store ptr %0, ptr %5, align 8
  store ptr %1, ptr %6, align 8
  store i32 %2, ptr %7, align 4
  store ptr %3, ptr %8, align 8
  call void @llvm.lifetime.start.p0(i64 2, ptr %9) #7
  %10 = load ptr, ptr %5, align 8
  %11 = load i32, ptr %7, align 4
  %12 = call zeroext i16 @tvb_get_ntohs(ptr noundef %10, i32 noundef %11)
  store i16 %12, ptr %9, align 2
  %13 = load ptr, ptr %8, align 8
  %14 = load i32, ptr @hf_gryphon_ldf_num_encodings, align 4
  %15 = load ptr, ptr %5, align 8
  %16 = load i32, ptr %7, align 4
  %17 = call ptr @proto_tree_add_item(ptr noundef %13, i32 noundef %14, ptr noundef %15, i32 noundef %16, i32 noundef 2, i32 noundef 0)
  %18 = load i32, ptr %7, align 4
  %19 = add i32 %18, 2
  store i32 %19, ptr %7, align 4
  br label %20

20:                                               ; preds = %24, %4
  %21 = load i16, ptr %9, align 2
  %22 = zext i16 %21 to i32
  %23 = icmp sgt i32 %22, 0
  br i1 %23, label %24, label %34

24:                                               ; preds = %20
  %25 = load ptr, ptr %5, align 8
  %26 = load ptr, ptr %6, align 8
  %27 = load i32, ptr %7, align 4
  %28 = load ptr, ptr %8, align 8
  %29 = call i32 @resp_ldf_do_encoding_block(ptr noundef %25, ptr noundef %26, i32 noundef %27, ptr noundef %28)
  store i32 %29, ptr %7, align 4
  %30 = load i16, ptr %9, align 2
  %31 = zext i16 %30 to i32
  %32 = sub i32 %31, 1
  %33 = trunc i32 %32 to i16
  store i16 %33, ptr %9, align 2
  br label %20, !llvm.loop !38

34:                                               ; preds = %20
  %35 = load i32, ptr %7, align 4
  call void @llvm.lifetime.end.p0(i64 2, ptr %9) #7
  ret i32 %35
}