; Function Attrs: null_pointer_is_valid sspstrong uwtable
define internal fastcc i32 @resp_ldf_get_encoding_info(ptr noundef %0, ptr noundef readonly captures(none) %1, ptr noundef %2) unnamed_addr #0 {
  %4 = tail call zeroext i16 @tvb_get_ntohs(ptr noundef %0, i32 noundef 16)
  %5 = load i32, ptr @hf_gryphon_ldf_num_encodings, align 4
  %6 = tail call ptr @proto_tree_add_item(ptr noundef %2, i32 noundef %5, ptr noundef %0, i32 noundef 16, i32 noundef 2, i32 noundef 0)
  %.not14 = icmp eq i16 %4, 0
  br i1 %.not14, label %._crit_edge, label %.lr.ph

.lr.ph:                                           ; preds = %3
  %7 = getelementptr i8, ptr %1, i64 408
  br label %8

8:                                                ; preds = %.lr.ph, %8
  %.016 = phi i16 [ %4, %.lr.ph ], [ %10, %8 ]
  %.01215 = phi i32 [ 18, %.lr.ph ], [ %9, %8 ]
  %.val = load ptr, ptr %7, align 8
  %9 = tail call fastcc i32 @resp_ldf_do_encoding_block(ptr noundef %0, ptr %.val, i32 noundef %.01215, ptr noundef %2)
  %10 = add i16 %.016, -1
  %.not = icmp eq i16 %10, 0
  br i1 %.not, label %._crit_edge, label %8, !llvm.loop !38

._crit_edge:                                      ; preds = %8, %3
  %.012.lcssa = phi i32 [ 18, %3 ], [ %9, %8 ]
  ret i32 %.012.lcssa
}